; ModuleID = '54/62.c'
source_filename = "54/62.c"
target datalayout = "e-m:e-p270:32:32-p271:32:32-p272:64:64-i64:64-f80:128-n8:16:32:64-S128"
target triple = "x86_64-pc-linux-gnu"

@.str = private unnamed_addr constant [6 x i8] c"%d %d\00", align 1
@.str.1 = private unnamed_addr constant [3 x i8] c"%d\00", align 1

; Function Attrs: noinline nounwind uwtable
define dso_local void @main() #0 {
  %1 = alloca i32, align 4
  %2 = alloca i32, align 4
  %3 = alloca i32, align 4
  %4 = alloca i32, align 4
  %5 = alloca i32, align 4
  %6 = call i32 (i8*, ...) @__isoc99_scanf(i8* getelementptr inbounds ([6 x i8], [6 x i8]* @.str, i64 0, i64 0), i32* %1, i32* %2)
  store i32 1, i32* %5, align 4
  br label %7

7:                                                ; preds = %46, %0
  %8 = load i32, i32* %1, align 4
  %9 = load i32, i32* %5, align 4
  %10 = mul nsw i32 %8, %9
  %11 = load i32, i32* %2, align 4
  %12 = add nsw i32 %10, %11
  store i32 %12, i32* %4, align 4
  store i32 2, i32* %3, align 4
  br label %13

13:                                               ; preds = %34, %7
  %14 = load i32, i32* %3, align 4
  %15 = load i32, i32* %1, align 4
  %16 = icmp sle i32 %14, %15
  br i1 %16, label %17, label %23

17:                                               ; preds = %13
  %18 = load i32, i32* %4, align 4
  %19 = load i32, i32* %1, align 4
  %20 = sub nsw i32 %19, 1
  %21 = srem i32 %18, %20
  %22 = icmp eq i32 %21, 0
  br label %23

23:                                               ; preds = %17, %13
  %24 = phi i1 [ false, %13 ], [ %22, %17 ]
  br i1 %24, label %25, label %37

25:                                               ; preds = %23
  %26 = load i32, i32* %4, align 4
  %27 = load i32, i32* %1, align 4
  %28 = sub nsw i32 %27, 1
  %29 = sdiv i32 %26, %28
  %30 = load i32, i32* %1, align 4
  %31 = mul nsw i32 %29, %30
  %32 = load i32, i32* %2, align 4
  %33 = add nsw i32 %31, %32
  store i32 %33, i32* %4, align 4
  br label %34

34:                                               ; preds = %25
  %35 = load i32, i32* %3, align 4
  %36 = add nsw i32 %35, 1
  store i32 %36, i32* %3, align 4
  br label %13

37:                                               ; preds = %23
  %38 = load i32, i32* %3, align 4
  %39 = load i32, i32* %1, align 4
  %40 = add nsw i32 %39, 1
  %41 = icmp eq i32 %38, %40
  br i1 %41, label %42, label %45

42:                                               ; preds = %37
  %43 = load i32, i32* %4, align 4
  %44 = call i32 (i8*, ...) @printf(i8* getelementptr inbounds ([3 x i8], [3 x i8]* @.str.1, i64 0, i64 0), i32 %43)
  br label %49

45:                                               ; preds = %37
  br label %46

46:                                               ; preds = %45
  %47 = load i32, i32* %5, align 4
  %48 = add nsw i32 %47, 1
  store i32 %48, i32* %5, align 4
  br label %7

49:                                               ; preds = %42
  ret void
}

declare dso_local i32 @__isoc99_scanf(i8*, ...) #1

declare dso_local i32 @printf(i8*, ...) #1


!llvm.module.flags = !{!0}
!llvm.ident = !{!1}

!0 = !{i32 1, !"wchar_size", i32 4}
!1 = !{!"clang version 10.0.0-4ubuntu1 "}
