; ModuleID = 'source-C-CXX/53/62.c'
source_filename = "source-C-CXX/53/62.c"
target datalayout = "e-m:e-p270:32:32-p271:32:32-p272:64:64-i64:64-f80:128-n8:16:32:64-S128"
target triple = "x86_64-pc-linux-gnu"

@.str = private unnamed_addr constant [6 x i8] c"%d %d\00", align 1
@.str.1 = private unnamed_addr constant [3 x i8] c"%d\00", align 1

; Function Attrs: nofree nounwind sspstrong uwtable
define dso_local void @main() local_unnamed_addr #0 {
  %1 = alloca i32, align 4
  %2 = alloca i32, align 4
  %3 = bitcast i32* %1 to i8*
  call void @llvm.lifetime.start.p0i8(i64 4, i8* nonnull %3) #3
  %4 = bitcast i32* %2 to i8*
  call void @llvm.lifetime.start.p0i8(i64 4, i8* nonnull %4) #3
  %5 = call i32 (i8*, ...) @__isoc99_scanf(i8* getelementptr inbounds ([6 x i8], [6 x i8]* @.str, i64 0, i64 0), i32* nonnull %1, i32* nonnull %2)
  %6 = load i32, i32* %1, align 4, !tbaa !5
  %7 = load i32, i32* %2, align 4, !tbaa !5
  %8 = add nsw i32 %6, -1
  %9 = icmp slt i32 %6, 2
  %10 = add i32 %6, 1
  br i1 %9, label %11, label %16

11:                                               ; preds = %0
  %12 = icmp eq i32 %10, 2
  br i1 %12, label %13, label %15

13:                                               ; preds = %11
  %14 = add nsw i32 %6, %7
  br label %34

15:                                               ; preds = %11, %15
  br label %15

16:                                               ; preds = %0, %31
  %17 = phi i32 [ %33, %31 ], [ 1, %0 ]
  %18 = mul nsw i32 %6, %17
  %19 = add nsw i32 %18, %7
  br label %20

20:                                               ; preds = %16, %26
  %21 = phi i32 [ %19, %16 ], [ %29, %26 ]
  %22 = phi i32 [ 2, %16 ], [ %28, %26 ]
  %23 = srem i32 %21, %8
  %24 = sdiv i32 %21, %8
  %25 = icmp eq i32 %23, 0
  br i1 %25, label %26, label %31

26:                                               ; preds = %20
  %27 = mul nsw i32 %24, %6
  %28 = add nuw i32 %22, 1
  %29 = add nsw i32 %27, %7
  %30 = icmp eq i32 %22, %6
  br i1 %30, label %34, label %20, !llvm.loop !9

31:                                               ; preds = %20
  %32 = icmp eq i32 %22, %10
  %33 = add nuw nsw i32 %17, 1
  br i1 %32, label %34, label %16

34:                                               ; preds = %31, %26, %13
  %35 = phi i32 [ %14, %13 ], [ %29, %26 ], [ %21, %31 ]
  %36 = call i32 (i8*, ...) @printf(i8* nonnull dereferenceable(1) getelementptr inbounds ([3 x i8], [3 x i8]* @.str.1, i64 0, i64 0), i32 %35)
  call void @llvm.lifetime.end.p0i8(i64 4, i8* nonnull %4) #3
  call void @llvm.lifetime.end.p0i8(i64 4, i8* nonnull %3) #3
  ret void
}

; Function Attrs: argmemonly mustprogress nofree nosync nounwind willreturn
declare void @llvm.lifetime.start.p0i8(i64 immarg, i8* nocapture) #1

; Function Attrs: nofree nounwind
declare noundef i32 @__isoc99_scanf(i8* nocapture noundef readonly, ...) local_unnamed_addr #2

; Function Attrs: nofree nounwind
declare noundef i32 @printf(i8* nocapture noundef readonly, ...) local_unnamed_addr #2

; Function Attrs: argmemonly mustprogress nofree nosync nounwind willreturn
declare void @llvm.lifetime.end.p0i8(i64 immarg, i8* nocapture) #1


!llvm.module.flags = !{!0, !1, !2, !3}
!llvm.ident = !{!4}

!0 = !{i32 1, !"wchar_size", i32 4}
!1 = !{i32 7, !"PIC Level", i32 2}
!2 = !{i32 7, !"PIE Level", i32 2}
!3 = !{i32 7, !"uwtable", i32 1}
!4 = !{!"clang version 13.0.0"}
!5 = !{!6, !6, i64 0}
!6 = !{!"int", !7, i64 0}
!7 = !{!"omnipotent char", !8, i64 0}
!8 = !{!"Simple C/C++ TBAA"}
!9 = distinct !{!9, !10}
!10 = !{!"llvm.loop.mustprogress"}
